; ModuleID = '29/1150.c'
source_filename = "29/1150.c"
target datalayout = "e-m:e-p270:32:32-p271:32:32-p272:64:64-i64:64-f80:128-n8:16:32:64-S128"
target triple = "x86_64-pc-linux-gnu"

@.str = private unnamed_addr constant [4 x i8] c"%lf\00", align 1
@.str.1 = private unnamed_addr constant [3 x i8] c"%d\00", align 1
@.str.2 = private unnamed_addr constant [7 x i8] c"%.3lf\0A\00", align 1

; Function Attrs: noinline nounwind uwtable
define dso_local i32 @main() #0 {
  %1 = alloca i32, align 4
  %2 = alloca double, align 8
  %3 = alloca double, align 8
  %4 = alloca double, align 8
  %5 = alloca double, align 8
  %6 = alloca [100000 x i32], align 16
  %7 = alloca [100000 x i32], align 16
  %8 = alloca i32, align 4
  %9 = alloca i32, align 4
  %10 = alloca i32, align 4
  store i32 0, i32* %1, align 4
  %11 = getelementptr inbounds [100000 x i32], [100000 x i32]* %6, i64 0, i64 1
  store i32 1, i32* %11, align 4
  %12 = getelementptr inbounds [100000 x i32], [100000 x i32]* %6, i64 0, i64 2
  store i32 2, i32* %12, align 8
  %13 = getelementptr inbounds [100000 x i32], [100000 x i32]* %6, i64 0, i64 3
  store i32 3, i32* %13, align 4
  %14 = call i32 (i8*, ...) @__isoc99_scanf(i8* getelementptr inbounds ([4 x i8], [4 x i8]* @.str, i64 0, i64 0), double* %5)
  store i32 0, i32* %9, align 4
  br label %15

15:                                               ; preds = %25, %0
  %16 = load i32, i32* %9, align 4
  %17 = sitofp i32 %16 to double
  %18 = load double, double* %5, align 8
  %19 = fcmp olt double %17, %18
  br i1 %19, label %20, label %28

20:                                               ; preds = %15
  %21 = load i32, i32* %9, align 4
  %22 = sext i32 %21 to i64
  %23 = getelementptr inbounds [100000 x i32], [100000 x i32]* %7, i64 0, i64 %22
  %24 = call i32 (i8*, ...) @__isoc99_scanf(i8* getelementptr inbounds ([3 x i8], [3 x i8]* @.str.1, i64 0, i64 0), i32* %23)
  br label %25

25:                                               ; preds = %20
  %26 = load i32, i32* %9, align 4
  %27 = add nsw i32 %26, 1
  store i32 %27, i32* %9, align 4
  br label %15

28:                                               ; preds = %15
  store i32 0, i32* %9, align 4
  br label %29

29:                                               ; preds = %101, %28
  %30 = load i32, i32* %9, align 4
  %31 = sitofp i32 %30 to double
  %32 = load double, double* %5, align 8
  %33 = fcmp olt double %31, %32
  br i1 %33, label %34, label %104

34:                                               ; preds = %29
  %35 = load i32, i32* %9, align 4
  %36 = sext i32 %35 to i64
  %37 = getelementptr inbounds [100000 x i32], [100000 x i32]* %7, i64 0, i64 %36
  %38 = load i32, i32* %37, align 4
  %39 = icmp eq i32 %38, 1
  br i1 %39, label %40, label %41

40:                                               ; preds = %34
  store double 2.000000e+00, double* %4, align 8
  br label %98

41:                                               ; preds = %34
  %42 = load i32, i32* %9, align 4
  %43 = sext i32 %42 to i64
  %44 = getelementptr inbounds [100000 x i32], [100000 x i32]* %7, i64 0, i64 %43
  %45 = load i32, i32* %44, align 4
  %46 = icmp eq i32 %45, 2
  br i1 %46, label %47, label %48

47:                                               ; preds = %41
  store double 3.500000e+00, double* %4, align 8
  br label %97

48:                                               ; preds = %41
  %49 = load i32, i32* %9, align 4
  %50 = sext i32 %49 to i64
  %51 = getelementptr inbounds [100000 x i32], [100000 x i32]* %7, i64 0, i64 %50
  %52 = load i32, i32* %51, align 4
  %53 = icmp sge i32 %52, 3
  br i1 %53, label %54, label %96

54:                                               ; preds = %48
  store double 3.500000e+00, double* %4, align 8
  store i32 3, i32* %8, align 4
  br label %55

55:                                               ; preds = %92, %54
  %56 = load i32, i32* %8, align 4
  %57 = load i32, i32* %9, align 4
  %58 = sext i32 %57 to i64
  %59 = getelementptr inbounds [100000 x i32], [100000 x i32]* %7, i64 0, i64 %58
  %60 = load i32, i32* %59, align 4
  %61 = icmp sle i32 %56, %60
  br i1 %61, label %62, label %95

62:                                               ; preds = %55
  %63 = load i32, i32* %8, align 4
  %64 = sub nsw i32 %63, 1
  %65 = sext i32 %64 to i64
  %66 = getelementptr inbounds [100000 x i32], [100000 x i32]* %6, i64 0, i64 %65
  %67 = load i32, i32* %66, align 4
  %68 = load i32, i32* %8, align 4
  %69 = sext i32 %68 to i64
  %70 = getelementptr inbounds [100000 x i32], [100000 x i32]* %6, i64 0, i64 %69
  %71 = load i32, i32* %70, align 4
  %72 = add nsw i32 %67, %71
  %73 = load i32, i32* %8, align 4
  %74 = add nsw i32 %73, 1
  %75 = sext i32 %74 to i64
  %76 = getelementptr inbounds [100000 x i32], [100000 x i32]* %6, i64 0, i64 %75
  store i32 %72, i32* %76, align 4
  %77 = load double, double* %4, align 8
  %78 = load i32, i32* %8, align 4
  %79 = add nsw i32 %78, 1
  %80 = sext i32 %79 to i64
  %81 = getelementptr inbounds [100000 x i32], [100000 x i32]* %6, i64 0, i64 %80
  %82 = load i32, i32* %81, align 4
  %83 = sitofp i32 %82 to double
  %84 = fmul double 1.000000e+00, %83
  %85 = load i32, i32* %8, align 4
  %86 = sext i32 %85 to i64
  %87 = getelementptr inbounds [100000 x i32], [100000 x i32]* %6, i64 0, i64 %86
  %88 = load i32, i32* %87, align 4
  %89 = sitofp i32 %88 to double
  %90 = fdiv double %84, %89
  %91 = fadd double %77, %90
  store double %91, double* %4, align 8
  br label %92

92:                                               ; preds = %62
  %93 = load i32, i32* %8, align 4
  %94 = add nsw i32 %93, 1
  store i32 %94, i32* %8, align 4
  br label %55

95:                                               ; preds = %55
  br label %96

96:                                               ; preds = %95, %48
  br label %97

97:                                               ; preds = %96, %47
  br label %98

98:                                               ; preds = %97, %40
  %99 = load double, double* %4, align 8
  %100 = call i32 (i8*, ...) @printf(i8* getelementptr inbounds ([7 x i8], [7 x i8]* @.str.2, i64 0, i64 0), double %99)
  br label %101

101:                                              ; preds = %98
  %102 = load i32, i32* %9, align 4
  %103 = add nsw i32 %102, 1
  store i32 %103, i32* %9, align 4
  br label %29

104:                                              ; preds = %29
  ret i32 0
}

declare dso_local i32 @__isoc99_scanf(i8*, ...) #1

declare dso_local i32 @printf(i8*, ...) #1


!llvm.module.flags = !{!0}
!llvm.ident = !{!1}

!0 = !{i32 1, !"wchar_size", i32 4}
!1 = !{!"clang version 10.0.0-4ubuntu1 "}
