; ModuleID = 'source-C-CXX/28/1150.c'
source_filename = "source-C-CXX/28/1150.c"
target datalayout = "e-m:e-p270:32:32-p271:32:32-p272:64:64-i64:64-f80:128-n8:16:32:64-S128"
target triple = "x86_64-pc-linux-gnu"

@.str = private unnamed_addr constant [4 x i8] c"%lf\00", align 1
@.str.1 = private unnamed_addr constant [3 x i8] c"%d\00", align 1
@.str.2 = private unnamed_addr constant [7 x i8] c"%.3lf\0A\00", align 1

; Function Attrs: nofree nounwind sspstrong uwtable
define dso_local i32 @main() local_unnamed_addr #0 {
  %1 = alloca double, align 8
  %2 = alloca [100000 x i32], align 16
  %3 = alloca [100000 x i32], align 16
  %4 = bitcast double* %1 to i8*
  call void @llvm.lifetime.start.p0i8(i64 8, i8* nonnull %4) #3
  %5 = bitcast [100000 x i32]* %2 to i8*
  call void @llvm.lifetime.start.p0i8(i64 400000, i8* nonnull %5) #3
  %6 = bitcast [100000 x i32]* %3 to i8*
  call void @llvm.lifetime.start.p0i8(i64 400000, i8* nonnull %6) #3
  %7 = getelementptr inbounds [100000 x i32], [100000 x i32]* %2, i64 0, i64 1
  store i32 1, i32* %7, align 4, !tbaa !5
  %8 = getelementptr inbounds [100000 x i32], [100000 x i32]* %2, i64 0, i64 2
  store i32 2, i32* %8, align 8, !tbaa !5
  %9 = getelementptr inbounds [100000 x i32], [100000 x i32]* %2, i64 0, i64 3
  store i32 3, i32* %9, align 4, !tbaa !5
  %10 = call i32 (i8*, ...) @__isoc99_scanf(i8* getelementptr inbounds ([4 x i8], [4 x i8]* @.str, i64 0, i64 0), double* nonnull %1)
  %11 = load double, double* %1, align 8, !tbaa !9
  %12 = fcmp ogt double %11, 0.000000e+00
  br i1 %12, label %16, label %13

13:                                               ; preds = %16, %0
  %14 = phi double [ %11, %0 ], [ %23, %16 ]
  %15 = fcmp ogt double %14, 0.000000e+00
  br i1 %15, label %25, label %87

16:                                               ; preds = %0, %16
  %17 = phi i64 [ %20, %16 ], [ 0, %0 ]
  %18 = getelementptr inbounds [100000 x i32], [100000 x i32]* %3, i64 0, i64 %17
  %19 = call i32 (i8*, ...) @__isoc99_scanf(i8* getelementptr inbounds ([3 x i8], [3 x i8]* @.str.1, i64 0, i64 0), i32* nonnull %18)
  %20 = add nuw i64 %17, 1
  %21 = trunc i64 %20 to i32
  %22 = sitofp i32 %21 to double
  %23 = load double, double* %1, align 8, !tbaa !9
  %24 = fcmp ogt double %23, %22
  br i1 %24, label %16, label %13, !llvm.loop !11

25:                                               ; preds = %13, %79
  %26 = phi i64 [ %82, %79 ], [ 0, %13 ]
  %27 = phi double [ %80, %79 ], [ undef, %13 ]
  %28 = getelementptr inbounds [100000 x i32], [100000 x i32]* %3, i64 0, i64 %26
  %29 = load i32, i32* %28, align 4, !tbaa !5
  switch i32 %29, label %31 [
    i32 1, label %79
    i32 2, label %30
  ]

30:                                               ; preds = %25
  br label %79

31:                                               ; preds = %25
  %32 = icmp sgt i32 %29, 2
  br i1 %32, label %33, label %79

33:                                               ; preds = %31
  %34 = load i32, i32* %8, align 8, !tbaa !5
  %35 = load i32, i32* %9, align 4, !tbaa !5
  %36 = zext i32 %29 to i64
  %37 = and i64 %36, 1
  %38 = icmp eq i32 %29, 3
  br i1 %38, label %64, label %39

39:                                               ; preds = %33
  %40 = add nsw i64 %36, -2
  %41 = and i64 %40, -2
  br label %42

42:                                               ; preds = %42, %39
  %43 = phi i32 [ %35, %39 ], [ %55, %42 ]
  %44 = phi i32 [ %34, %39 ], [ %48, %42 ]
  %45 = phi i64 [ 3, %39 ], [ %56, %42 ]
  %46 = phi double [ 3.500000e+00, %39 ], [ %61, %42 ]
  %47 = phi i64 [ %41, %39 ], [ %62, %42 ]
  %48 = add nsw i32 %43, %44
  %49 = add nuw nsw i64 %45, 1
  %50 = getelementptr inbounds [100000 x i32], [100000 x i32]* %2, i64 0, i64 %49
  store i32 %48, i32* %50, align 4, !tbaa !5
  %51 = sitofp i32 %48 to double
  %52 = sitofp i32 %43 to double
  %53 = fdiv double %51, %52
  %54 = fadd double %46, %53
  %55 = add nsw i32 %48, %43
  %56 = add nuw nsw i64 %45, 2
  %57 = getelementptr inbounds [100000 x i32], [100000 x i32]* %2, i64 0, i64 %56
  store i32 %55, i32* %57, align 4, !tbaa !5
  %58 = sitofp i32 %55 to double
  %59 = sitofp i32 %48 to double
  %60 = fdiv double %58, %59
  %61 = fadd double %54, %60
  %62 = add i64 %47, -2
  %63 = icmp eq i64 %62, 0
  br i1 %63, label %64, label %42, !llvm.loop !13

64:                                               ; preds = %42, %33
  %65 = phi double [ undef, %33 ], [ %61, %42 ]
  %66 = phi i32 [ %35, %33 ], [ %55, %42 ]
  %67 = phi i32 [ %34, %33 ], [ %48, %42 ]
  %68 = phi i64 [ 3, %33 ], [ %56, %42 ]
  %69 = phi double [ 3.500000e+00, %33 ], [ %61, %42 ]
  %70 = icmp eq i64 %37, 0
  br i1 %70, label %79, label %71

71:                                               ; preds = %64
  %72 = add nsw i32 %66, %67
  %73 = add nuw nsw i64 %68, 1
  %74 = getelementptr inbounds [100000 x i32], [100000 x i32]* %2, i64 0, i64 %73
  store i32 %72, i32* %74, align 4, !tbaa !5
  %75 = sitofp i32 %72 to double
  %76 = sitofp i32 %66 to double
  %77 = fdiv double %75, %76
  %78 = fadd double %69, %77
  br label %79

79:                                               ; preds = %71, %64, %25, %30, %31
  %80 = phi double [ 3.500000e+00, %30 ], [ %27, %31 ], [ 2.000000e+00, %25 ], [ %65, %64 ], [ %78, %71 ]
  %81 = call i32 (i8*, ...) @printf(i8* nonnull dereferenceable(1) getelementptr inbounds ([7 x i8], [7 x i8]* @.str.2, i64 0, i64 0), double %80)
  %82 = add nuw i64 %26, 1
  %83 = trunc i64 %82 to i32
  %84 = sitofp i32 %83 to double
  %85 = load double, double* %1, align 8, !tbaa !9
  %86 = fcmp ogt double %85, %84
  br i1 %86, label %25, label %87, !llvm.loop !14

87:                                               ; preds = %79, %13
  call void @llvm.lifetime.end.p0i8(i64 400000, i8* nonnull %6) #3
  call void @llvm.lifetime.end.p0i8(i64 400000, i8* nonnull %5) #3
  call void @llvm.lifetime.end.p0i8(i64 8, i8* nonnull %4) #3
  ret i32 0
}

; Function Attrs: argmemonly mustprogress nofree nosync nounwind willreturn
declare void @llvm.lifetime.start.p0i8(i64 immarg, i8* nocapture) #1

; Function Attrs: nofree nounwind
declare noundef i32 @__isoc99_scanf(i8* nocapture noundef readonly, ...) local_unnamed_addr #2

; Function Attrs: nofree nounwind
declare noundef i32 @printf(i8* nocapture noundef readonly, ...) local_unnamed_addr #2

; Function Attrs: argmemonly mustprogress nofree nosync nounwind willreturn
declare void @llvm.lifetime.end.p0i8(i64 immarg, i8* nocapture) #1


!llvm.module.flags = !{!0, !1, !2, !3}
!llvm.ident = !{!4}

!0 = !{i32 1, !"wchar_size", i32 4}
!1 = !{i32 7, !"PIC Level", i32 2}
!2 = !{i32 7, !"PIE Level", i32 2}
!3 = !{i32 7, !"uwtable", i32 1}
!4 = !{!"clang version 13.0.0"}
!5 = !{!6, !6, i64 0}
!6 = !{!"int", !7, i64 0}
!7 = !{!"omnipotent char", !8, i64 0}
!8 = !{!"Simple C/C++ TBAA"}
!9 = !{!10, !10, i64 0}
!10 = !{!"double", !7, i64 0}
!11 = distinct !{!11, !12}
!12 = !{!"llvm.loop.mustprogress"}
!13 = distinct !{!13, !12}
!14 = distinct !{!14, !12}
